target datalayout = "e-m:e-p270:32:32-p271:32:32-p272:64:64-i64:64-i128:128-f80:128-n8:16:32:64-S128"
target triple = "x86_64-pc-linux-gnu"

; Function Attrs: inlinehint nounwind uwtable
define internal zeroext i1 @pmix_iof_fd_always_ready(i32 noundef %0) #2 {
  %2 = alloca i32, align 4
  store i32 %0, ptr %2, align 4, !tbaa !81
  %3 = load i32, ptr %2, align 4, !tbaa !81
  %4 = call zeroext i1 @pmix_fd_is_regular(i32 noundef %3)
  br i1 %4, label %15, label %5

5:                                                ; preds = %1
  %6 = load i32, ptr %2, align 4, !tbaa !81
  %7 = call zeroext i1 @pmix_fd_is_chardev(i32 noundef %6)
  br i1 %7, label %8, label %12

8:                                                ; preds = %5
  %9 = load i32, ptr %2, align 4, !tbaa !81
  %10 = call i32 @isatty(i32 noundef %9) #13
  %11 = icmp ne i32 %10, 0
  br i1 %11, label %12, label %15

12:                                               ; preds = %8, %5
  %13 = load i32, ptr %2, align 4, !tbaa !81
  %14 = call zeroext i1 @pmix_fd_is_blkdev(i32 noundef %13)
  br label %15

15:                                               ; preds = %12, %8, %1
  %16 = phi i1 [ true, %8 ], [ true, %1 ], [ %14, %12 ]
  ret i1 %16
}