; Function Attrs: inlinehint nounwind uwtable
define internal fastcc zeroext i1 @pmix_iof_fd_always_ready(i32 noundef %0) unnamed_addr #4 {
  %2 = tail call zeroext i1 @pmix_fd_is_regular(i32 noundef %0) #18
  br i1 %2, label %9, label %3

3:                                                ; preds = %1
  %4 = tail call zeroext i1 @pmix_fd_is_chardev(i32 noundef %0) #18
  br i1 %4, label %5, label %7

5:                                                ; preds = %3
  %6 = tail call i32 @isatty(i32 noundef %0) #18
  %.not = icmp eq i32 %6, 0
  br i1 %.not, label %9, label %7

7:                                                ; preds = %5, %3
  %8 = tail call zeroext i1 @pmix_fd_is_blkdev(i32 noundef %0) #18
  br label %9

9:                                                ; preds = %7, %5, %1
  %10 = phi i1 [ true, %5 ], [ true, %1 ], [ %8, %7 ]
  ret i1 %10
}